; Function Attrs: mustprogress uwtable
define noundef zeroext i1 @_ZNK4cvc58internal8TypeNode12isStringLikeEv(ptr noundef nonnull readonly align 8 captures(none) dereferenceable(8) %0) local_unnamed_addr #4 align 2 {
  %2 = load ptr, ptr %0, align 8, !tbaa !3
  %3 = getelementptr inbounds nuw i8, ptr %2, i64 8
  %4 = load i64, ptr %3, align 8
  %5 = and i64 %4, 1023
  %6 = icmp eq i64 %5, 13
  br i1 %6, label %_ZNK4cvc58internal8TypeNode8isStringEv.exit, label %_ZNK4cvc58internal8TypeNode8isStringEv.exit.thread

_ZNK4cvc58internal8TypeNode8isStringEv.exit:      ; preds = %1
  %7 = tail call noundef nonnull align 4 dereferenceable(4) ptr @_ZNK4cvc58internal4expr9NodeValue8getConstINS0_12TypeConstantEEERKT_v(ptr noundef nonnull align 8 dereferenceable(24) %2)
  %8 = load i32, ptr %7, align 4, !tbaa !46
  %9 = icmp eq i32 %8, 6
  br i1 %9, label %11, label %_ZNK4cvc58internal8TypeNode8isStringEv.exit._ZNK4cvc58internal8TypeNode8isStringEv.exit.thread_crit_edge

_ZNK4cvc58internal8TypeNode8isStringEv.exit._ZNK4cvc58internal8TypeNode8isStringEv.exit.thread_crit_edge: ; preds = %_ZNK4cvc58internal8TypeNode8isStringEv.exit
  %.pre = load ptr, ptr %0, align 8, !tbaa !3
  %.phi.trans.insert = getelementptr inbounds nuw i8, ptr %.pre, i64 8
  %.pre1 = load i64, ptr %.phi.trans.insert, align 8
  %.pre2 = and i64 %.pre1, 1023
  br label %_ZNK4cvc58internal8TypeNode8isStringEv.exit.thread

_ZNK4cvc58internal8TypeNode8isStringEv.exit.thread: ; preds = %_ZNK4cvc58internal8TypeNode8isStringEv.exit._ZNK4cvc58internal8TypeNode8isStringEv.exit.thread_crit_edge, %1
  %.pre-phi = phi i64 [ %.pre2, %_ZNK4cvc58internal8TypeNode8isStringEv.exit._ZNK4cvc58internal8TypeNode8isStringEv.exit.thread_crit_edge ], [ %5, %1 ]
  %10 = icmp eq i64 %.pre-phi, 342
  br label %11

11:                                               ; preds = %_ZNK4cvc58internal8TypeNode8isStringEv.exit.thread, %_ZNK4cvc58internal8TypeNode8isStringEv.exit
  %12 = phi i1 [ true, %_ZNK4cvc58internal8TypeNode8isStringEv.exit ], [ %10, %_ZNK4cvc58internal8TypeNode8isStringEv.exit.thread ]
  ret i1 %12
}